target datalayout = "e-m:e-p270:32:32-p271:32:32-p272:64:64-i64:64-i128:128-f80:128-n8:16:32:64-S128"
target triple = "x86_64-pc-linux-gnu"

%"class.nanobind::object" = type { %"class.nanobind::handle" }
%"class.nanobind::handle" = type { ptr }
%"struct.nanobind::detail::tuple.406" = type { %"struct.nanobind::detail::type_caster.407" }
%"struct.nanobind::detail::type_caster.407" = type { %"class.nanobind::bytes" }
%"class.nanobind::bytes" = type { %"class.nanobind::object" }
%class.anon.415 = type { i8 }

; Function Attrs: mustprogress nounwind optsize uwtable
define linkonce_odr hidden void @_ZN8nanobind6objectC2ENS_6handleENS_6detail7steal_tE(ptr noundef nonnull align 8 dereferenceable(8) %0, ptr %1) unnamed_addr #2 comdat align 2 {
  %3 = alloca %"class.nanobind::handle", align 8
  %4 = alloca ptr, align 8
  %5 = getelementptr inbounds nuw %"class.nanobind::handle", ptr %3, i32 0, i32 0
  store ptr %1, ptr %5, align 8
  store ptr %0, ptr %4, align 8, !tbaa !40
  %6 = load ptr, ptr %4, align 8
  call void @llvm.memcpy.p0.p0.i64(ptr align 8 %6, ptr align 8 %3, i64 8, i1 false)
  ret void
}

; Function Attrs: alwaysinline mustprogress nounwind optsize uwtable
define linkonce_odr hidden void @_ZN8nanobind5bytesC2ENS_6handleENS_6detail7steal_tE(ptr noundef nonnull align 8 dereferenceable(8) %0, ptr %1) unnamed_addr #8 comdat align 2 {
  %3 = alloca %"class.nanobind::handle", align 8
  %4 = alloca ptr, align 8
  %5 = alloca %"class.nanobind::handle", align 8
  %6 = getelementptr inbounds nuw %"class.nanobind::handle", ptr %3, i32 0, i32 0
  store ptr %1, ptr %6, align 8
  store ptr %0, ptr %4, align 8, !tbaa !497
  %7 = load ptr, ptr %4, align 8
  call void @llvm.memcpy.p0.p0.i64(ptr align 8 %5, ptr align 8 %3, i64 8, i1 false)
  %8 = getelementptr inbounds nuw %"class.nanobind::handle", ptr %5, i32 0, i32 0
  %9 = load ptr, ptr %8, align 8
  call void @_ZN8nanobind6objectC2ENS_6handleENS_6detail7steal_tE(ptr noundef nonnull align 8 dereferenceable(8) %7, ptr %9) #21
  ret void
}

; Function Attrs: alwaysinline mustprogress nounwind optsize uwtable
define linkonce_odr hidden void @_ZN8nanobind6handleC2EDn(ptr noundef nonnull align 8 dereferenceable(8) %0, ptr %1) unnamed_addr #8 comdat align 2 {
  %3 = alloca ptr, align 8
  %4 = alloca ptr, align 8
  store ptr %0, ptr %3, align 8, !tbaa !20
  store ptr %1, ptr %4, align 8, !tbaa !237
  %5 = load ptr, ptr %3, align 8
  %6 = getelementptr inbounds nuw %"class.nanobind::handle", ptr %5, i32 0, i32 0
  store ptr null, ptr %6, align 8, !tbaa !22
  ret void
}

; Function Attrs: inlinehint mustprogress nounwind optsize uwtable
define linkonce_odr hidden void @_ZN8nanobind6detail11type_casterINS_5bytesEiED2Ev(ptr noundef nonnull align 8 dereferenceable(8) %0) unnamed_addr #12 comdat align 2 {
  %2 = alloca ptr, align 8
  store ptr %0, ptr %2, align 8, !tbaa !495
  %3 = load ptr, ptr %2, align 8
  %4 = getelementptr inbounds nuw %"struct.nanobind::detail::type_caster.407", ptr %3, i32 0, i32 0
  call void @_ZN8nanobind6objectD2Ev(ptr noundef nonnull align 8 dereferenceable(8) %4) #20
  ret void
}

; Function Attrs: mustprogress optsize uwtable
define linkonce_odr hidden noundef i64 @_ZNK8nanobind5bytes4sizeEv(ptr noundef nonnull align 8 dereferenceable(8) %0) #3 comdat align 2 {
  %2 = alloca ptr, align 8
  store ptr %0, ptr %2, align 8, !tbaa !497
  %3 = load ptr, ptr %2, align 8
  %4 = getelementptr inbounds nuw %"class.nanobind::handle", ptr %3, i32 0, i32 0
  %5 = load ptr, ptr %4, align 8, !tbaa !22
  %6 = call i64 @PyBytes_Size(ptr noundef %5) #21
  ret i64 %6
}

; Function Attrs: mustprogress nounwind optsize uwtable
define linkonce_odr hidden void @_ZN8nanobind6objectC2EOS0_(ptr noundef nonnull align 8 dereferenceable(8) %0, ptr noundef nonnull align 8 dereferenceable(8) %1) unnamed_addr #2 comdat align 2 {
  %3 = alloca ptr, align 8
  %4 = alloca ptr, align 8
  store ptr %0, ptr %3, align 8, !tbaa !40
  store ptr %1, ptr %4, align 8, !tbaa !40
  %5 = load ptr, ptr %3, align 8
  %6 = load ptr, ptr %4, align 8, !tbaa !40
  call void @llvm.memcpy.p0.p0.i64(ptr align 8 %5, ptr align 8 %6, i64 8, i1 false)
  %7 = load ptr, ptr %4, align 8, !tbaa !40
  %8 = getelementptr inbounds nuw %"class.nanobind::handle", ptr %7, i32 0, i32 0
  store ptr null, ptr %8, align 8, !tbaa !22
  ret void
}

; Function Attrs: mustprogress optsize uwtable
define linkonce_odr hidden void @_ZN8nanobind6detail11type_casterINS_5bytesEiEC2Ev(ptr noundef nonnull align 8 dereferenceable(8) %0) unnamed_addr #3 comdat align 2 {
  %2 = alloca ptr, align 8
  %3 = alloca %"class.nanobind::handle", align 8
  store ptr %0, ptr %2, align 8, !tbaa !495
  %4 = load ptr, ptr %2, align 8
  %5 = getelementptr inbounds nuw %"struct.nanobind::detail::type_caster.407", ptr %4, i32 0, i32 0
  call void @_ZN8nanobind6handleC2EDn(ptr noundef nonnull align 8 dereferenceable(8) %3, ptr null) #21
  %6 = getelementptr inbounds nuw %"class.nanobind::handle", ptr %3, i32 0, i32 0
  %7 = load ptr, ptr %6, align 8
  call void @_ZN8nanobind5bytesC2ENS_6handleENS_6detail7steal_tE(ptr noundef nonnull align 8 dereferenceable(8) %5, ptr %7) #21
  ret void
}

; Function Attrs: inlinehint mustprogress nounwind optsize uwtable
define linkonce_odr hidden void @_ZN8nanobind6detail5tupleIJNS0_11type_casterINS_5bytesEiEEEED2Ev(ptr noundef nonnull align 8 dereferenceable(8) %0) unnamed_addr #12 comdat align 2 {
  %2 = alloca ptr, align 8
  store ptr %0, ptr %2, align 8, !tbaa !493
  %3 = load ptr, ptr %2, align 8
  %4 = getelementptr inbounds nuw %"struct.nanobind::detail::tuple.406", ptr %3, i32 0, i32 0
  call void @_ZN8nanobind6detail11type_casterINS_5bytesEiED2Ev(ptr noundef nonnull align 8 dereferenceable(8) %4) #20
  ret void
}

; Function Attrs: mustprogress nounwind optsize uwtable
define linkonce_odr hidden void @_ZN8nanobind6objectD2Ev(ptr noundef nonnull align 8 dereferenceable(8) %0) unnamed_addr #2 comdat align 2 {
  %2 = alloca ptr, align 8
  store ptr %0, ptr %2, align 8, !tbaa !40
  %3 = load ptr, ptr %2, align 8
  %4 = call noundef nonnull align 8 dereferenceable(8) ptr @_ZNKR8nanobind6handle7dec_refEv(ptr noundef nonnull align 8 dereferenceable(8) %3) #20
  ret void
}

; Function Attrs: alwaysinline mustprogress nounwind optsize uwtable
define linkonce_odr hidden noundef ptr @_ZNK8nanobind6handle3ptrEv(ptr noundef nonnull align 8 dereferenceable(8) %0) #8 comdat align 2 {
  %2 = alloca ptr, align 8
  store ptr %0, ptr %2, align 8, !tbaa !20
  %3 = load ptr, ptr %2, align 8
  %4 = getelementptr inbounds nuw %"class.nanobind::handle", ptr %3, i32 0, i32 0
  %5 = load ptr, ptr %4, align 8, !tbaa !22
  ret ptr %5
}

; Function Attrs: alwaysinline mustprogress nounwind optsize uwtable
define linkonce_odr hidden ptr @_ZN8nanobind6detail11type_casterImiE8from_cppEmNS_9rv_policyEPNS0_12cleanup_listE(i64 noundef %0, i32 noundef %1, ptr noundef %2) #8 comdat align 2 personality ptr @__gxx_personality_v0 {
  %4 = alloca %"class.nanobind::handle", align 8
  %5 = alloca i64, align 8
  %6 = alloca i32, align 4
  %7 = alloca ptr, align 8
  store i64 %0, ptr %5, align 8, !tbaa !29
  store i32 %1, ptr %6, align 4, !tbaa !113
  store ptr %2, ptr %7, align 8, !tbaa !115
  %8 = load i64, ptr %5, align 8, !tbaa !29
  %9 = invoke ptr @PyLong_FromUnsignedLong(i64 noundef %8) #21
          to label %10 unwind label %14

10:                                               ; preds = %3
  invoke void @_ZN8nanobind6handleC2EPK7_object(ptr noundef nonnull align 8 dereferenceable(8) %4, ptr noundef %9) #21
          to label %11 unwind label %14

11:                                               ; preds = %10
  %12 = getelementptr inbounds nuw %"class.nanobind::handle", ptr %4, i32 0, i32 0
  %13 = load ptr, ptr %12, align 8
  ret ptr %13

14:                                               ; preds = %10, %3
  %15 = landingpad { ptr, i32 }
          catch ptr null
  %16 = extractvalue { ptr, i32 } %15, 0
  call void @__clang_call_terminate(ptr %16) #22
  unreachable
}

; Function Attrs: inlinehint mustprogress optsize uwtable
define internal noundef i64 @"_ZZL32nanobind_init_test_functions_extRN8nanobind7module_EENK4$_45clENS_5bytesE"(ptr noundef nonnull align 1 dereferenceable(1) %0, ptr noundef %1) #11 align 2 {
  %3 = alloca ptr, align 8
  %4 = alloca ptr, align 8
  store ptr %0, ptr %3, align 8, !tbaa !26
  store ptr %1, ptr %4, align 8, !tbaa !497
  %5 = call noundef i64 @_ZNK8nanobind5bytes4sizeEv(ptr noundef nonnull align 8 dereferenceable(8) %1) #21
  ret i64 %5
}

; Function Attrs: inlinehint mustprogress nounwind optsize uwtable
define linkonce_odr hidden void @_ZN8nanobind5bytesC2EOS0_(ptr noundef nonnull align 8 dereferenceable(8) %0, ptr noundef nonnull align 8 dereferenceable(8) %1) unnamed_addr #12 comdat align 2 {
  %3 = alloca ptr, align 8
  %4 = alloca ptr, align 8
  store ptr %0, ptr %3, align 8, !tbaa !497
  store ptr %1, ptr %4, align 8, !tbaa !497
  %5 = load ptr, ptr %3, align 8
  %6 = load ptr, ptr %4, align 8, !tbaa !497
  call void @_ZN8nanobind6objectC2EOS0_(ptr noundef nonnull align 8 dereferenceable(8) %5, ptr noundef nonnull align 8 dereferenceable(8) %6) #20
  ret void
}

; Function Attrs: mustprogress nounwind optsize uwtable
define linkonce_odr hidden noundef nonnull align 8 dereferenceable(8) ptr @_ZN8nanobind6detail11type_casterINS_5bytesEiEcvOS2_Ev(ptr noundef nonnull align 8 dereferenceable(8) %0) #2 comdat align 2 {
  %2 = alloca ptr, align 8
  store ptr %0, ptr %2, align 8, !tbaa !495
  %3 = load ptr, ptr %2, align 8
  %4 = getelementptr inbounds nuw %"struct.nanobind::detail::type_caster.407", ptr %3, i32 0, i32 0
  ret ptr %4
}

; Function Attrs: alwaysinline mustprogress nounwind optsize uwtable
define linkonce_odr hidden void @_ZN8nanobind6handleC2EPK7_object(ptr noundef nonnull align 8 dereferenceable(8) %0, ptr noundef %1) unnamed_addr #8 comdat align 2 {
  %3 = alloca ptr, align 8
  %4 = alloca ptr, align 8
  store ptr %0, ptr %3, align 8, !tbaa !20
  store ptr %1, ptr %4, align 8, !tbaa !14
  %5 = load ptr, ptr %3, align 8
  %6 = getelementptr inbounds nuw %"class.nanobind::handle", ptr %5, i32 0, i32 0
  %7 = load ptr, ptr %4, align 8, !tbaa !14
  store ptr %7, ptr %6, align 8, !tbaa !22
  ret void
}

; Function Attrs: alwaysinline mustprogress nounwind optsize uwtable
define linkonce_odr hidden noundef nonnull align 8 dereferenceable(8) ptr @_ZN8nanobind6detail5tupleIJNS0_11type_casterINS_5bytesEiEEEE3getILm0EEERDav(ptr noundef nonnull align 8 dereferenceable(8) %0) #8 comdat align 2 {
  %2 = alloca ptr, align 8
  store ptr %0, ptr %2, align 8, !tbaa !493
  %3 = load ptr, ptr %2, align 8
  %4 = getelementptr inbounds nuw %"struct.nanobind::detail::tuple.406", ptr %3, i32 0, i32 0
  ret ptr %4
}

; Function Attrs: mustprogress optsize uwtable
define linkonce_odr hidden void @_ZN8nanobind6detail5tupleIJNS0_11type_casterINS_5bytesEiEEEEC2Ev(ptr noundef nonnull align 8 dereferenceable(8) %0) unnamed_addr #3 comdat align 2 {
  %2 = alloca ptr, align 8
  store ptr %0, ptr %2, align 8, !tbaa !493
  %3 = load ptr, ptr %2, align 8
  %4 = getelementptr inbounds nuw %"struct.nanobind::detail::tuple.406", ptr %3, i32 0, i32 0
  call void @_ZN8nanobind6detail11type_casterINS_5bytesEiEC2Ev(ptr noundef nonnull align 8 dereferenceable(8) %4) #21
  ret void
}

; Function Attrs: alwaysinline mustprogress optsize uwtable
define internal noundef ptr @"_ZZN8nanobind6detail11func_createILb0ELb1EZL32nanobind_init_test_functions_extRNS_7module_EE4$_45mJNS_5bytesEEJLm0EEJNS_5scopeENS_4nameEEEEP7_objectOT1_PFT2_DpT3_ESt16integer_sequenceImJXspT4_EEEDpRKT5_ENKUlPvPS9_PhNS_9rv_policyEPNS0_12cleanup_listEE_clESN_SO_SP_SQ_SS_"(ptr noundef nonnull align 1 dereferenceable(1) %0, ptr noundef %1, ptr noundef %2, ptr noundef %3, i32 noundef %4, ptr noundef %5) #6 align 2 personality ptr @__gxx_personality_v0 {
  %7 = alloca ptr, align 8
  %8 = alloca ptr, align 8
  %9 = alloca ptr, align 8
  %10 = alloca ptr, align 8
  %11 = alloca ptr, align 8
  %12 = alloca i32, align 4
  %13 = alloca ptr, align 8
  %14 = alloca ptr, align 8
  %15 = alloca %"struct.nanobind::detail::tuple.406", align 8
  %16 = alloca %"class.nanobind::handle", align 8
  %17 = alloca ptr, align 8
  %18 = alloca i32, align 4
  %19 = alloca i32, align 4
  %20 = alloca ptr, align 8
  %21 = alloca %"class.nanobind::handle", align 8
  %22 = alloca %"class.nanobind::bytes", align 8
  store ptr %0, ptr %8, align 8, !tbaa !26
  store ptr %1, ptr %9, align 8, !tbaa !26
  store ptr %2, ptr %10, align 8, !tbaa !146
  store ptr %3, ptr %11, align 8, !tbaa !57
  store i32 %4, ptr %12, align 4, !tbaa !113
  store ptr %5, ptr %13, align 8, !tbaa !115
  call void @llvm.lifetime.start.p0(i64 8, ptr %14) #1
  %23 = load ptr, ptr %9, align 8, !tbaa !26
  store ptr %23, ptr %14, align 8, !tbaa !503
  call void @llvm.lifetime.start.p0(i64 8, ptr %15) #1
  call void @_ZN8nanobind6detail5tupleIJNS0_11type_casterINS_5bytesEiEEEEC2Ev(ptr noundef nonnull align 8 dereferenceable(8) %15) #21
  %24 = call noundef nonnull align 8 dereferenceable(8) ptr @_ZN8nanobind6detail5tupleIJNS0_11type_casterINS_5bytesEiEEEE3getILm0EEERDav(ptr noundef nonnull align 8 dereferenceable(8) %15) #21
  %25 = load ptr, ptr %10, align 8, !tbaa !146
  %26 = getelementptr inbounds nuw ptr, ptr %25, i64 0
  %27 = load ptr, ptr %26, align 8, !tbaa !14
  invoke void @_ZN8nanobind6handleC2EPK7_object(ptr noundef nonnull align 8 dereferenceable(8) %16, ptr noundef %27) #21
          to label %28 unwind label %37

28:                                               ; preds = %6
  %29 = load ptr, ptr %11, align 8, !tbaa !57
  %30 = getelementptr inbounds nuw i8, ptr %29, i64 0
  %31 = load i8, ptr %30, align 1, !tbaa !106
  %32 = load ptr, ptr %13, align 8, !tbaa !115
  %33 = getelementptr inbounds nuw %"class.nanobind::handle", ptr %16, i32 0, i32 0
  %34 = load ptr, ptr %33, align 8
  %35 = call noundef zeroext i1 @_ZN8nanobind6detail11type_casterINS_5bytesEiE11from_pythonENS_6handleEhPNS0_12cleanup_listE(ptr noundef nonnull align 8 dereferenceable(8) %24, ptr %34, i8 noundef zeroext %31, ptr noundef %32) #20
  br i1 %35, label %41, label %36

36:                                               ; preds = %28
  store ptr inttoptr (i64 1 to ptr), ptr %7, align 8
  store i32 1, ptr %19, align 4
  br label %57

37:                                               ; preds = %6
  %38 = landingpad { ptr, i32 }
          cleanup
  %39 = extractvalue { ptr, i32 } %38, 0
  store ptr %39, ptr %17, align 8
  %40 = extractvalue { ptr, i32 } %38, 1
  store i32 %40, ptr %18, align 4
  br label %59

41:                                               ; preds = %28
  call void @llvm.lifetime.start.p0(i64 8, ptr %20) #1
  call void @llvm.lifetime.start.p0(i64 8, ptr %21) #1
  %42 = load ptr, ptr %14, align 8, !tbaa !503
  %43 = call noundef nonnull align 8 dereferenceable(8) ptr @_ZN8nanobind6detail5tupleIJNS0_11type_casterINS_5bytesEiEEEE3getILm0EEERDav(ptr noundef nonnull align 8 dereferenceable(8) %15) #21
  %44 = call noundef nonnull align 8 dereferenceable(8) ptr @_ZN8nanobind6detail11type_casterINS_5bytesEiEcvOS2_Ev(ptr noundef nonnull align 8 dereferenceable(8) %43) #21
  call void @_ZN8nanobind5bytesC2EOS0_(ptr noundef nonnull align 8 dereferenceable(8) %22, ptr noundef nonnull align 8 dereferenceable(8) %44) #20
  %45 = invoke noundef i64 @"_ZZL32nanobind_init_test_functions_extRN8nanobind7module_EENK4$_45clENS_5bytesE"(ptr noundef nonnull align 1 dereferenceable(1) %42, ptr noundef %22) #21
          to label %46 unwind label %53

46:                                               ; preds = %41
  %47 = load i32, ptr %12, align 4, !tbaa !113
  %48 = load ptr, ptr %13, align 8, !tbaa !115
  %49 = call ptr @_ZN8nanobind6detail11type_casterImiE8from_cppEmNS_9rv_policyEPNS0_12cleanup_listE(i64 noundef %45, i32 noundef %47, ptr noundef %48) #20
  %50 = getelementptr inbounds nuw %"class.nanobind::handle", ptr %21, i32 0, i32 0
  store ptr %49, ptr %50, align 8
  %51 = call noundef ptr @_ZNK8nanobind6handle3ptrEv(ptr noundef nonnull align 8 dereferenceable(8) %21) #21
  store ptr %51, ptr %20, align 8, !tbaa !14
  call void @_ZN8nanobind6objectD2Ev(ptr noundef nonnull align 8 dereferenceable(8) %22) #20
  call void @llvm.lifetime.end.p0(i64 8, ptr %21) #1
  %52 = load ptr, ptr %20, align 8, !tbaa !14
  store ptr %52, ptr %7, align 8
  store i32 1, ptr %19, align 4
  call void @llvm.lifetime.end.p0(i64 8, ptr %20) #1
  br label %57

53:                                               ; preds = %41
  %54 = landingpad { ptr, i32 }
          cleanup
  %55 = extractvalue { ptr, i32 } %54, 0
  store ptr %55, ptr %17, align 8
  %56 = extractvalue { ptr, i32 } %54, 1
  store i32 %56, ptr %18, align 4
  call void @_ZN8nanobind6objectD2Ev(ptr noundef nonnull align 8 dereferenceable(8) %22) #20
  call void @llvm.lifetime.end.p0(i64 8, ptr %21) #1
  call void @llvm.lifetime.end.p0(i64 8, ptr %20) #1
  br label %59

57:                                               ; preds = %46, %36
  call void @_ZN8nanobind6detail5tupleIJNS0_11type_casterINS_5bytesEiEEEED2Ev(ptr noundef nonnull align 8 dereferenceable(8) %15) #20
  call void @llvm.lifetime.end.p0(i64 8, ptr %15) #1
  call void @llvm.lifetime.end.p0(i64 8, ptr %14) #1
  %58 = load ptr, ptr %7, align 8
  ret ptr %58

59:                                               ; preds = %53, %37
  call void @_ZN8nanobind6detail5tupleIJNS0_11type_casterINS_5bytesEiEEEED2Ev(ptr noundef nonnull align 8 dereferenceable(8) %15) #20
  call void @llvm.lifetime.end.p0(i64 8, ptr %15) #1
  call void @llvm.lifetime.end.p0(i64 8, ptr %14) #1
  br label %60

60:                                               ; preds = %59
  %61 = load ptr, ptr %17, align 8
  %62 = load i32, ptr %18, align 4
  %63 = insertvalue { ptr, i32 } poison, ptr %61, 0
  %64 = insertvalue { ptr, i32 } %63, i32 %62, 1
  resume { ptr, i32 } %64
}

; Function Attrs: inlinehint mustprogress optsize uwtable
define internal noundef ptr @"_ZZN8nanobind6detail11func_createILb0ELb1EZL32nanobind_init_test_functions_extRNS_7module_EE4$_45mJNS_5bytesEEJLm0EEJNS_5scopeENS_4nameEEEEP7_objectOT1_PFT2_DpT3_ESt16integer_sequenceImJXspT4_EEEDpRKT5_ENUlPvPS9_PhNS_9rv_policyEPNS0_12cleanup_listEE_8__invokeESN_SO_SP_SQ_SS_"(ptr noundef %0, ptr noundef %1, ptr noundef %2, i32 noundef %3, ptr noundef %4) #11 align 2 {
  %6 = alloca ptr, align 8
  %7 = alloca ptr, align 8
  %8 = alloca ptr, align 8
  %9 = alloca i32, align 4
  %10 = alloca ptr, align 8
  %11 = alloca %class.anon.415, align 1
  store ptr %0, ptr %6, align 8, !tbaa !26
  store ptr %1, ptr %7, align 8, !tbaa !146
  store ptr %2, ptr %8, align 8, !tbaa !57
  store i32 %3, ptr %9, align 4, !tbaa !113
  store ptr %4, ptr %10, align 8, !tbaa !115
  %12 = load ptr, ptr %6, align 8, !tbaa !26
  %13 = load ptr, ptr %7, align 8, !tbaa !146
  %14 = load ptr, ptr %8, align 8, !tbaa !57
  %15 = load i32, ptr %9, align 4, !tbaa !113
  %16 = load ptr, ptr %10, align 8, !tbaa !115
  %17 = call noundef ptr @"_ZZN8nanobind6detail11func_createILb0ELb1EZL32nanobind_init_test_functions_extRNS_7module_EE4$_45mJNS_5bytesEEJLm0EEJNS_5scopeENS_4nameEEEEP7_objectOT1_PFT2_DpT3_ESt16integer_sequenceImJXspT4_EEEDpRKT5_ENKUlPvPS9_PhNS_9rv_policyEPNS0_12cleanup_listEE_clESN_SO_SP_SQ_SS_"(ptr noundef nonnull align 1 dereferenceable(1) %11, ptr noundef %12, ptr noundef %13, ptr noundef %14, i32 noundef %15, ptr noundef %16) #21
  ret ptr %17
}